target datalayout = "e-m:e-p270:32:32-p271:32:32-p272:64:64-i64:64-i128:128-f80:128-n8:16:32:64-S128"
target triple = "x86_64-pc-linux-gnu"

%struct.option = type { i32, i32, ptr, ptr, ptr, ptr, i32, ptr, i64, ptr, i64, ptr }
%struct.object_id = type { [32 x i8], i32 }
%struct.worktree = type { ptr, ptr, ptr, ptr, ptr, ptr, %struct.object_id, i32, i32, i32, i32, i32 }

@.str.8 = private unnamed_addr constant [1 x i8] zeroinitializer, align 1
@.str.21 = private unnamed_addr constant [7 x i8] c"reason\00", align 1
@.str.22 = private unnamed_addr constant [7 x i8] c"string\00", align 1
@.str.23 = private unnamed_addr constant [19 x i8] c"reason for locking\00", align 1
@.str.74 = private unnamed_addr constant [3 x i8] c"%s\00", align 1
@git_worktree_lock_usage = internal constant [2 x ptr] [ptr @.str.148, ptr null], align 16
@.str.143 = private unnamed_addr constant [27 x i8] c"'%s' is not a working tree\00", align 1
@.str.144 = private unnamed_addr constant [51 x i8] c"The main working tree cannot be locked or unlocked\00", align 1
@.str.145 = private unnamed_addr constant [35 x i8] c"'%s' is already locked, reason: %s\00", align 1
@.str.146 = private unnamed_addr constant [23 x i8] c"'%s' is already locked\00", align 1
@.str.147 = private unnamed_addr constant [20 x i8] c"worktrees/%s/locked\00", align 1

; Function Attrs: nounwind uwtable
define internal i32 @lock_worktree(i32 noundef %0, ptr noundef %1, ptr noundef %2, ptr noundef %3) #0 {
  %5 = alloca i32, align 4
  %6 = alloca ptr, align 8
  %7 = alloca ptr, align 8
  %8 = alloca ptr, align 8
  %9 = alloca ptr, align 8
  %10 = alloca ptr, align 8
  %11 = alloca [2 x %struct.option], align 16
  %12 = alloca ptr, align 8
  %13 = alloca ptr, align 8
  store i32 %0, ptr %5, align 4, !tbaa !4
  store ptr %1, ptr %6, align 8, !tbaa !8
  store ptr %2, ptr %7, align 8, !tbaa !11
  store ptr %3, ptr %8, align 8, !tbaa !13
  call void @llvm.lifetime.start.p0(i64 8, ptr %9) #11
  store ptr @.str.8, ptr %9, align 8, !tbaa !11
  call void @llvm.lifetime.start.p0(i64 8, ptr %10) #11
  call void @llvm.lifetime.start.p0(i64 176, ptr %11) #11
  call void @llvm.memset.p0.i64(ptr align 16 %11, i8 0, i64 176, i1 false)
  %14 = getelementptr inbounds nuw %struct.option, ptr %11, i32 0, i32 0
  store i32 10, ptr %14, align 8, !tbaa !16
  %15 = getelementptr inbounds nuw %struct.option, ptr %11, i32 0, i32 2
  store ptr @.str.21, ptr %15, align 8, !tbaa !20
  %16 = getelementptr inbounds nuw %struct.option, ptr %11, i32 0, i32 3
  store ptr %9, ptr %16, align 8, !tbaa !21
  %17 = getelementptr inbounds nuw %struct.option, ptr %11, i32 0, i32 4
  store ptr @.str.22, ptr %17, align 8, !tbaa !22
  %18 = getelementptr inbounds nuw %struct.option, ptr %11, i32 0, i32 5
  store ptr @.str.23, ptr %18, align 8, !tbaa !23
  %19 = getelementptr inbounds %struct.option, ptr %11, i64 1
  %20 = getelementptr inbounds nuw %struct.option, ptr %19, i32 0, i32 0
  store i32 0, ptr %20, align 8, !tbaa !16
  call void @llvm.lifetime.start.p0(i64 8, ptr %12) #11
  call void @llvm.lifetime.start.p0(i64 8, ptr %13) #11
  %21 = load i32, ptr %5, align 4, !tbaa !4
  %22 = load ptr, ptr %6, align 8, !tbaa !8
  %23 = load ptr, ptr %7, align 8, !tbaa !11
  %24 = getelementptr inbounds [2 x %struct.option], ptr %11, i64 0, i64 0
  %25 = call i32 @parse_options(i32 noundef %21, ptr noundef %22, ptr noundef %23, ptr noundef %24, ptr noundef @git_worktree_lock_usage, i32 noundef 0)
  store i32 %25, ptr %5, align 4, !tbaa !4
  %26 = load i32, ptr %5, align 4, !tbaa !4
  %27 = icmp ne i32 %26, 1
  br i1 %27, label %28, label %30

28:                                               ; preds = %4
  %29 = getelementptr inbounds [2 x %struct.option], ptr %11, i64 0, i64 0
  call void @usage_with_options(ptr noundef @git_worktree_lock_usage, ptr noundef %29) #12
  unreachable

30:                                               ; preds = %4
  %31 = call ptr @get_worktrees()
  store ptr %31, ptr %12, align 8, !tbaa !61
  %32 = load ptr, ptr %12, align 8, !tbaa !61
  %33 = load ptr, ptr %7, align 8, !tbaa !11
  %34 = load ptr, ptr %6, align 8, !tbaa !8
  %35 = getelementptr inbounds ptr, ptr %34, i64 0
  %36 = load ptr, ptr %35, align 8, !tbaa !11
  %37 = call ptr @find_worktree(ptr noundef %32, ptr noundef %33, ptr noundef %36)
  store ptr %37, ptr %13, align 8, !tbaa !63
  %38 = load ptr, ptr %13, align 8, !tbaa !63
  %39 = icmp ne ptr %38, null
  br i1 %39, label %45, label %40

40:                                               ; preds = %30
  %41 = call ptr @_(ptr noundef @.str.143)
  %42 = load ptr, ptr %6, align 8, !tbaa !8
  %43 = getelementptr inbounds ptr, ptr %42, i64 0
  %44 = load ptr, ptr %43, align 8, !tbaa !11
  call void (ptr, ...) @die(ptr noundef %41, ptr noundef %44) #12
  unreachable

45:                                               ; preds = %30
  %46 = load ptr, ptr %13, align 8, !tbaa !63
  %47 = call i32 @is_main_worktree(ptr noundef %46)
  %48 = icmp ne i32 %47, 0
  br i1 %48, label %49, label %51

49:                                               ; preds = %45
  %50 = call ptr @_(ptr noundef @.str.144)
  call void (ptr, ...) @die(ptr noundef %50) #12
  unreachable

51:                                               ; preds = %45
  %52 = load ptr, ptr %13, align 8, !tbaa !63
  %53 = call ptr @worktree_lock_reason(ptr noundef %52)
  store ptr %53, ptr %10, align 8, !tbaa !11
  %54 = load ptr, ptr %10, align 8, !tbaa !11
  %55 = icmp ne ptr %54, null
  br i1 %55, label %56, label %71

56:                                               ; preds = %51
  %57 = load ptr, ptr %10, align 8, !tbaa !11
  %58 = load i8, ptr %57, align 1, !tbaa !67
  %59 = icmp ne i8 %58, 0
  br i1 %59, label %60, label %66

60:                                               ; preds = %56
  %61 = call ptr @_(ptr noundef @.str.145)
  %62 = load ptr, ptr %6, align 8, !tbaa !8
  %63 = getelementptr inbounds ptr, ptr %62, i64 0
  %64 = load ptr, ptr %63, align 8, !tbaa !11
  %65 = load ptr, ptr %10, align 8, !tbaa !11
  call void (ptr, ...) @die(ptr noundef %61, ptr noundef %64, ptr noundef %65) #12
  unreachable

66:                                               ; preds = %56
  %67 = call ptr @_(ptr noundef @.str.146)
  %68 = load ptr, ptr %6, align 8, !tbaa !8
  %69 = getelementptr inbounds ptr, ptr %68, i64 0
  %70 = load ptr, ptr %69, align 8, !tbaa !11
  call void (ptr, ...) @die(ptr noundef %67, ptr noundef %70) #12
  unreachable

71:                                               ; preds = %51
  %72 = load ptr, ptr %13, align 8, !tbaa !63
  %73 = getelementptr inbounds nuw %struct.worktree, ptr %72, i32 0, i32 2
  %74 = load ptr, ptr %73, align 8, !tbaa !68
  %75 = call ptr (ptr, ...) @git_common_path(ptr noundef @.str.147, ptr noundef %74)
  %76 = load ptr, ptr %9, align 8, !tbaa !11
  call void (ptr, ptr, ...) @write_file(ptr noundef %75, ptr noundef @.str.74, ptr noundef %76)
  %77 = load ptr, ptr %12, align 8, !tbaa !61
  call void @free_worktrees(ptr noundef %77)
  call void @llvm.lifetime.end.p0(i64 8, ptr %13) #11
  call void @llvm.lifetime.end.p0(i64 8, ptr %12) #11
  call void @llvm.lifetime.end.p0(i64 176, ptr %11) #11
  call void @llvm.lifetime.end.p0(i64 8, ptr %10) #11
  call void @llvm.lifetime.end.p0(i64 8, ptr %9) #11
  ret i32 0
}