; Function Attrs: nounwind uwtable
define internal noundef i32 @lock_worktree(i32 noundef %0, ptr noundef %1, ptr noundef %2, ptr readnone captures(none) %3) #0 {
  %5 = alloca ptr, align 8
  %6 = alloca [2 x %struct.option], align 16
  call void @llvm.lifetime.start.p0(i64 8, ptr nonnull %5) #18
  store ptr @.str.8, ptr %5, align 8, !tbaa !37
  call void @llvm.lifetime.start.p0(i64 176, ptr nonnull %6) #18
  call void @llvm.memset.p0.i64(ptr noundef nonnull align 16 dereferenceable(176) %6, i8 0, i64 176, i1 false)
  store i32 10, ptr %6, align 16, !tbaa !8
  %7 = getelementptr inbounds nuw i8, ptr %6, i64 8
  store ptr @.str.21, ptr %7, align 8, !tbaa !14
  %8 = getelementptr inbounds nuw i8, ptr %6, i64 16
  store ptr %5, ptr %8, align 16, !tbaa !15
  %9 = getelementptr inbounds nuw i8, ptr %6, i64 24
  store ptr @.str.22, ptr %9, align 8, !tbaa !39
  %10 = getelementptr inbounds nuw i8, ptr %6, i64 32
  store ptr @.str.23, ptr %10, align 16, !tbaa !40
  %11 = call i32 @parse_options(i32 noundef %0, ptr noundef %1, ptr noundef %2, ptr noundef nonnull %6, ptr noundef nonnull @git_worktree_lock_usage, i32 noundef 0) #18
  %.not = icmp eq i32 %11, 1
  br i1 %.not, label %13, label %12

12:                                               ; preds = %4
  call void @usage_with_options(ptr noundef nonnull @git_worktree_lock_usage, ptr noundef nonnull %6) #19
  unreachable

13:                                               ; preds = %4
  %14 = call ptr @get_worktrees() #18
  %15 = load ptr, ptr %1, align 8, !tbaa !37
  %16 = call ptr @find_worktree(ptr noundef %14, ptr noundef %2, ptr noundef %15) #18
  %.not18 = icmp eq ptr %16, null
  br i1 %.not18, label %17, label %20

17:                                               ; preds = %13
  %18 = call fastcc ptr @_(ptr noundef nonnull @.str.143)
  %19 = load ptr, ptr %1, align 8, !tbaa !37
  call void (ptr, ...) @die(ptr noundef %18, ptr noundef %19) #19
  unreachable

20:                                               ; preds = %13
  %21 = call i32 @is_main_worktree(ptr noundef nonnull %16) #18
  %.not19 = icmp eq i32 %21, 0
  br i1 %.not19, label %24, label %22

22:                                               ; preds = %20
  %23 = call fastcc ptr @_(ptr noundef nonnull @.str.144)
  call void (ptr, ...) @die(ptr noundef %23) #19
  unreachable

24:                                               ; preds = %20
  %25 = call ptr @worktree_lock_reason(ptr noundef nonnull %16) #18
  %.not20 = icmp eq ptr %25, null
  br i1 %.not20, label %34, label %26

26:                                               ; preds = %24
  %27 = load i8, ptr %25, align 1, !tbaa !53
  %.not21 = icmp eq i8 %27, 0
  br i1 %.not21, label %31, label %28

28:                                               ; preds = %26
  %29 = call fastcc ptr @_(ptr noundef nonnull @.str.145)
  %30 = load ptr, ptr %1, align 8, !tbaa !37
  call void (ptr, ...) @die(ptr noundef %29, ptr noundef %30, ptr noundef nonnull %25) #19
  unreachable

31:                                               ; preds = %26
  %32 = call fastcc ptr @_(ptr noundef nonnull @.str.146)
  %33 = load ptr, ptr %1, align 8, !tbaa !37
  call void (ptr, ...) @die(ptr noundef %32, ptr noundef %33) #19
  unreachable

34:                                               ; preds = %24
  %35 = getelementptr inbounds nuw i8, ptr %16, i64 16
  %36 = load ptr, ptr %35, align 8, !tbaa !91
  %37 = call ptr (ptr, ...) @git_common_path(ptr noundef nonnull @.str.147, ptr noundef %36)
  %38 = load ptr, ptr %5, align 8, !tbaa !37
  call void (ptr, ptr, ...) @write_file(ptr noundef %37, ptr noundef nonnull @.str.74, ptr noundef %38) #18
  call void @free_worktrees(ptr noundef %14) #18
  call void @llvm.lifetime.end.p0(i64 176, ptr nonnull %6) #18
  call void @llvm.lifetime.end.p0(i64 8, ptr nonnull %5) #18
  ret i32 0
}